target datalayout = "e-m:e-p270:32:32-p271:32:32-p272:64:64-i64:64-i128:128-f80:128-n8:16:32:64-S128"
target triple = "x86_64-unknown-linux-gnu"

%class.aiVector2t = type { float, float }

; Function Attrs: mustprogress nounwind uwtable
define linkonce_odr hidden void @_ZN10aiVector2tIfEC2Ev(ptr noundef nonnull align 4 dereferenceable(8) %this) unnamed_addr #0 comdat align 2 {
entry:
  %this.addr = alloca ptr, align 8
  store ptr %this, ptr %this.addr, align 8
  %this1 = load ptr, ptr %this.addr, align 8
  %x = getelementptr inbounds %class.aiVector2t, ptr %this1, i32 0, i32 0
  store float 0.000000e+00, ptr %x, align 4
  %y = getelementptr inbounds %class.aiVector2t, ptr %this1, i32 0, i32 1
  store float 0.000000e+00, ptr %y, align 4
  ret void
}

; Function Attrs: mustprogress uwtable
define hidden <2 x float> @_ZN6Assimp11XFileParser11ReadVector2Ev(ptr noundef nonnull align 8 dereferenceable(56) %this) #9 align 2 {
entry:
  %retval = alloca %class.aiVector2t, align 4
  %this.addr = alloca ptr, align 8
  store ptr %this, ptr %this.addr, align 8
  %this1 = load ptr, ptr %this.addr, align 8
  call void @_ZN10aiVector2tIfEC2Ev(ptr noundef nonnull align 4 dereferenceable(8) %retval)
  %call = call noundef float @_ZN6Assimp11XFileParser9ReadFloatEv(ptr noundef nonnull align 8 dereferenceable(56) %this1)
  %x = getelementptr inbounds %class.aiVector2t, ptr %retval, i32 0, i32 0
  store float %call, ptr %x, align 4
  %call2 = call noundef float @_ZN6Assimp11XFileParser9ReadFloatEv(ptr noundef nonnull align 8 dereferenceable(56) %this1)
  %y = getelementptr inbounds %class.aiVector2t, ptr %retval, i32 0, i32 1
  store float %call2, ptr %y, align 4
  call void @_ZN6Assimp11XFileParser16TestForSeparatorEv(ptr noundef nonnull align 8 dereferenceable(56) %this1)
  %0 = load <2 x float>, ptr %retval, align 4
  ret <2 x float> %0
}