; Function Attrs: mustprogress uwtable
define hidden <2 x float> @_ZN6Assimp11XFileParser11ReadVector2Ev(ptr noundef nonnull align 8 dereferenceable(56) %this) local_unnamed_addr #9 align 2 {
entry:
  %call = tail call noundef float @_ZN6Assimp11XFileParser9ReadFloatEv(ptr noundef nonnull align 8 dereferenceable(56) %this)
  %retval.sroa.0.0.vec.insert = insertelement <2 x float> poison, float %call, i64 0
  %call2 = tail call noundef float @_ZN6Assimp11XFileParser9ReadFloatEv(ptr noundef nonnull align 8 dereferenceable(56) %this)
  %retval.sroa.0.4.vec.insert = insertelement <2 x float> %retval.sroa.0.0.vec.insert, float %call2, i64 1
  tail call void @_ZN6Assimp11XFileParser16TestForSeparatorEv(ptr noundef nonnull align 8 dereferenceable(56) %this)
  ret <2 x float> %retval.sroa.0.4.vec.insert
}